(dp0
S'METTS MARK'
p1
(dp2
S'to_messages'
p3
I807
sS'deferral_payments'
p4
S'NaN'
p5
sS'expenses'
p6
I94299
sS'poi'
p7
I00
sS'eu'
p8
F144725639.8644907
sS'long_term_incentive'
p9
g5
sS'email_address'
p10
S'mark.metts@enron.com'
p11
sS'from_poi_to_this_person'
p12
I38
sS'deferred_income'
p13
g5
sS'fraction_from_poi'
p14
F0.04708798017348203
sS'restricted_stock_deferred'
p15
g5
sS'shared_receipt_with_poi'
p16
I702
sS'loan_advances'
p17
g5
sS'from_messages'
p18
I29
sS'other'
p19
I1740
sS'director_fees'
p20
g5
sS'bonus'
p21
I600000
sS'total_stock_value'
p22
I585062
sS'from_this_person_to_poi'
p23
I1
sS'c2'
p24
F144714113.26116848
sS'c1'
p25
F1826542.4221624522
sS'restricted_stock'
p26
I585062
sS'salary'
p27
I365788
sS'fraction_to_from_poi'
p28
F0.7323049001814882
sS'total_payments'
p29
I1061827
sS'imbalance_payment_stock'
p30
L476765L
sS'fraction_total_exercised_stock'
p31
F585062.0
sS'fraction_to_poi'
p32
F0.034482758620689655
sS'exercised_stock_options'
p33
g5
ssS'BAXTER JOHN C'
p34
(dp35
g3
g5
sg4
I1295738
sg6
I11200
sg7
I00
sg8
F137044429.07116997
sg9
I1586055
sg10
g5
sg12
g5
sg13
I-1386055
sg14
F0.0
sg15
g5
sg16
g5
sg17
g5
sg18
g5
sg19
I2660303
sg20
g5
sg21
I1200000
sg22
I10623258
sg23
g5
sg24
F136529236.91772702
sg25
F11871941.96861232
sg26
I3942714
sg27
I267102
sg28
F0.0
sg29
I5634343
sg30
L4988915L
sg31
F1.5901785842590064
sg32
F0.0
sg33
I6680544
ssS'ELLIOTT STEVEN'
p36
(dp37
g3
g5
sg4
g5
sg6
I78552
sg7
I00
sg8
F142343347.03086653
sg9
g5
sg10
S'steven.elliott@enron.com'
p38
sg12
g5
sg13
I-400729
sg14
F0.0
sg15
g5
sg16
g5
sg17
g5
sg18
g5
sg19
I12961
sg20
g5
sg21
I350000
sg22
I6678735
sg23
g5
sg24
F142203012.16780692
sg25
F6319159.30739675
sg26
I1788391
sg27
I170941
sg28
F0.0
sg29
I211725
sg30
L6467010L
sg31
F1.3656984048565908
sg32
F0.0
sg33
I4890344
ssS'CORDES WILLIAM R'
p39
(dp40
g3
I764
sg4
g5
sg6
g5
sg7
I00
sg8
F145226247.7971635
sg9
g5
sg10
S'bill.cordes@enron.com'
p41
sg12
I10
sg13
g5
sg14
F0.013089005235602094
sg15
g5
sg16
I58
sg17
g5
sg18
I12
sg19
g5
sg20
g5
sg21
g5
sg22
I1038185
sg23
I0
sg24
F145214364.45131487
sg25
F1857796.071649041
sg26
I386335
sg27
g5
sg28
F0.0
sg29
g5
sg30
L1038185L
sg31
F1.5926746950985655
sg32
F0.0
sg33
I651850
ssS'HANNON KEVIN P'
p42
(dp43
g3
I1045
sg4
g5
sg6
I34039
sg7
I01
sg8
F142318860.2756936
sg9
I1617011
sg10
S'kevin.hannon@enron.com'
p44
sg12
I32
sg13
I-3117011
sg14
F0.03062200956937799
sg15
g5
sg16
I1035
sg17
g5
sg18
I32
sg19
I11350
sg20
g5
sg21
I1500000
sg22
I6391065
sg23
I21
sg24
F142135486.34172615
sg25
F7222292.750461798
sg26
I853064
sg27
I243293
sg28
F21.4306640625
sg29
I288682
sg30
L6102383L
sg31
F1.1540382531530782
sg32
F0.65625
sg33
I5538001
ssS'MORDAUNT KRISTINA M'
p45
(dp46
g3
g5
sg4
g5
sg6
I35018
sg7
I00
sg8
F145215489.15457016
sg9
g5
sg10
S'kristina.mordaunt@enron.com'
p47
sg12
g5
sg13
g5
sg14
F0.0
sg15
g5
sg16
g5
sg17
g5
sg18
g5
sg19
I1411
sg20
g5
sg21
I325000
sg22
I208510
sg23
g5
sg24
F145197924.79746148
sg25
F2258522.7277594283
sg26
I208510
sg27
I267093
sg28
F0.0
sg29
I628522
sg30
L420012L
sg31
F208510.0
sg32
F0.0
sg33
g5
ssS'MEYER ROCKFORD G'
p48
(dp49
g3
I232
sg4
I1848227
sg6
g5
sg7
I00
sg8
F143985090.22560024
sg9
g5
sg10
S'rockford.meyer@enron.com'
p50
sg12
I0
sg13
g5
sg14
F0.0
sg15
g5
sg16
I22
sg17
g5
sg18
I28
sg19
g5
sg20
g5
sg21
g5
sg22
I955873
sg23
I0
sg24
F143968492.59945178
sg25
F2186171.520224507
sg26
I462384
sg27
g5
sg28
F0.0
sg29
I1848227
sg30
L892354L
sg31
F1.9369692130928957
sg32
F0.0
sg33
I493489
ssS'MCMAHON JEFFREY'
p51
(dp52
g3
I2355
sg4
g5
sg6
I137108
sg7
I00
sg8
F141904677.42445338
sg9
I694862
sg10
S'jeffrey.mcmahon@enron.com'
p53
sg12
I58
sg13
g5
sg14
F0.024628450106157114
sg15
g5
sg16
I2228
sg17
g5
sg18
I48
sg19
I297353
sg20
g5
sg21
I2600000
sg22
I1662855
sg23
I26
sg24
F141863285.7498784
sg25
F3427189.984013148
sg26
I558801
sg27
I370448
sg28
F21.99353448275862
sg29
I4099771
sg30
L2436916L
sg31
F1.5061355694558418
sg32
F0.5416666666666666
sg33
I1104054
ssS'HORTON STANLEY C'
p54
(dp55
g3
I2350
sg4
I3131860
sg6
g5
sg7
I00
sg8
F140092271.85526693
sg9
g5
sg10
S'stanley.horton@enron.com'
p56
sg12
I44
sg13
g5
sg14
F0.01872340425531915
sg15
g5
sg16
I1074
sg17
g5
sg18
I1073
sg19
g5
sg20
g5
sg21
g5
sg22
I7256648
sg23
I15
sg24
F139879529.227087
sg25
F7717638.031064273
sg26
I2046079
sg27
g5
sg28
F0.7466322121494534
sg29
I3131860
sg30
L4124788L
sg31
F1.3926786114913745
sg32
F0.013979496738117428
sg33
I5210569
ssS'PIPER GREGORY F'
p57
(dp58
g3
I1238
sg4
I1130036
sg6
I43057
sg7
I00
sg8
F143969171.20780942
sg9
g5
sg10
S'greg.piper@enron.com'
p59
sg12
I61
sg13
I-33333
sg14
F0.049273021001615507
sg15
I-409554
sg16
I742
sg17
g5
sg18
I222
sg19
I778
sg20
g5
sg21
I400000
sg22
I880290
sg23
I48
sg24
F143960664.17541495
sg25
F1565064.9944796783
sg26
I409554
sg27
I197091
sg28
F4.388125830748782
sg29
I1737629
sg30
L857339L
sg31
F1.0
sg32
F0.21621621621621623
sg33
I880290
ssS'HUMPHREY GENE E'
p60
(dp61
g3
I128
sg4
I2964506
sg6
I4994
sg7
I00
sg8
F142340320.71039093
sg9
g5
sg10
S'gene.humphrey@enron.com'
p62
sg12
I10
sg13
g5
sg14
F0.078125
sg15
g5
sg16
I119
sg17
g5
sg18
I17
sg19
g5
sg20
g5
sg21
g5
sg22
I2282768
sg23
I17
sg24
F142295192.96717435
sg25
F3583986.37993461
sg26
g5
sg27
I130724
sg28
F12.8
sg29
I3100224
sg30
L817456L
sg31
F1.0
sg32
F1.0
sg33
I2282768
ssS'UMANOFF ADAM S'
p63
(dp64
g3
I111
sg4
g5
sg6
I53122
sg7
I00
sg8
F144932436.91360632
sg9
g5
sg10
S'adam.umanoff@enron.com'
p65
sg12
I12
sg13
g5
sg14
F0.10810810810810811
sg15
g5
sg16
I41
sg17
g5
sg18
I18
sg19
g5
sg20
g5
sg21
I788750
sg22
g5
sg23
I0
sg24
F144913414.03947958
sg25
F2348127.1555927494
sg26
g5
sg27
I288589
sg28
F0.0
sg29
I1130461
sg30
L1130461L
sg31
F1.0
sg32
F0.0
sg33
g5
ssS'BLACHMAN JEREMY M'
p66
(dp67
g3
I2475
sg4
g5
sg6
I84208
sg7
I00
sg8
F143753817.680802
sg9
I831809
sg10
S'jeremy.blachman@enron.com'
p68
sg12
I25
sg13
g5
sg14
F0.010101010101010102
sg15
g5
sg16
I2326
sg17
g5
sg18
I14
sg19
I272
sg20
g5
sg21
I850000
sg22
I954354
sg23
I2
sg24
F143746853.5550341
sg25
F1414987.9267460387
sg26
I189041
sg27
I248546
sg28
F14.14285714285714
sg29
I2014835
sg30
L1060481L
sg31
F1.2470113535246363
sg32
F0.14285714285714285
sg33
I765313
ssS'SUNDE MARTIN'
p69
(dp70
g3
I2647
sg4
g5
sg6
g5
sg7
I00
sg8
F144318071.2227968
sg9
I476451
sg10
S'marty.sunde@enron.com'
p71
sg12
I37
sg13
g5
sg14
F0.013978088401964487
sg15
g5
sg16
I2565
sg17
g5
sg18
I38
sg19
I111122
sg20
g5
sg21
I700000
sg22
I698920
sg23
I13
sg24
F144307957.43923753
sg25
F1708537.7325246027
sg26
I698920
sg27
I257486
sg28
F24.47439544807966
sg29
I1545059
sg30
L846139L
sg31
F698920.0
sg32
F0.34210526315789475
sg33
g5
ssS'GIBBS DANA R'
p72
(dp73
g3
I169
sg4
I504610
sg6
g5
sg7
I00
sg8
F143816649.03376177
sg9
I461912
sg10
S'dana.gibbs@enron.com'
p74
sg12
I0
sg13
g5
sg14
F0.0
sg15
g5
sg16
I23
sg17
g5
sg18
I12
sg19
g5
sg20
g5
sg21
g5
sg22
I2218275
sg23
I0
sg24
F143808817.78625798
sg25
F1500821.8478758538
sg26
g5
sg27
g5
sg28
F0.0
sg29
I966522
sg30
L1251753L
sg31
F1.0
sg32
F0.0
sg33
I2218275
ssS'LOWRY CHARLES P'
p75
(dp76
g3
g5
sg4
g5
sg6
g5
sg7
I00
sg8
F145543593.93021843
sg9
g5
sg10
g5
sg12
g5
sg13
g5
sg14
F0.0
sg15
I-153686
sg16
g5
sg17
g5
sg18
g5
sg19
g5
sg20
g5
sg21
g5
sg22
I372205
sg23
g5
sg24
F145524485.62878564
sg25
F2358350.398409021
sg26
I153686
sg27
g5
sg28
F0.0
sg29
g5
sg30
L372205L
sg31
F1.0
sg32
F0.0
sg33
I372205
ssS'COLWELL WESLEY'
p77
(dp78
g3
I1758
sg4
I27610
sg6
I16514
sg7
I01
sg8
F144348067.8339888
sg9
g5
sg10
S'wes.colwell@enron.com'
p79
sg12
I240
sg13
I-144062
sg14
F0.13651877133105803
sg15
g5
sg16
I1132
sg17
g5
sg18
I40
sg19
I101740
sg20
g5
sg21
I1200000
sg22
I698242
sg23
I11
sg24
F144336639.25436097
sg25
F1816385.4663282274
sg26
I698242
sg27
I288542
sg28
F2.0143750000000002
sg29
I1490344
sg30
L792102L
sg31
F698242.0
sg32
F0.275
sg33
g5
ssS'MULLER MARK S'
p80
(dp81
g3
I136
sg4
I842924
sg6
g5
sg7
I00
sg8
F142669714.60332528
sg9
I1725545
sg10
S's..muller@enron.com'
p82
sg12
I12
sg13
I-719000
sg14
F0.08823529411764706
sg15
g5
sg16
I114
sg17
g5
sg18
I16
sg19
I947
sg20
g5
sg21
I1100000
sg22
I1416848
sg23
I0
sg24
F142646344.99218464
sg25
F2582193.905369612
sg26
I360528
sg27
I251654
sg28
F0.0
sg29
I3202070
sg30
L1785222L
sg31
F1.3413056649500152
sg32
F0.0
sg33
I1056320
ssS'JACKSON CHARLENE R'
p83
(dp84
g3
I258
sg4
g5
sg6
I10181
sg7
I00
sg8
F145017436.21846515
sg9
g5
sg10
S'charlene.jackson@enron.com'
p85
sg12
I25
sg13
g5
sg14
F0.09689922480620156
sg15
g5
sg16
I117
sg17
g5
sg18
I56
sg19
I2435
sg20
g5
sg21
I250000
sg22
I725735
sg23
I19
sg24
F145006150.8578737
sg25
F1809149.1812946303
sg26
I540672
sg27
I288558
sg28
F3.5014285714285713
sg29
I551174
sg30
L174561L
sg31
F3.9215564429410525
sg32
F0.3392857142857143
sg33
I185063
ssS'WESTFAHL RICHARD K'
p86
(dp87
g3
g5
sg4
g5
sg6
I51870
sg7
I00
sg8
F145052029.13706744
sg9
I256191
sg10
S'dick.westfahl@enron.com'
p88
sg12
g5
sg13
I-10800
sg14
F0.0
sg15
g5
sg16
g5
sg17
g5
sg18
g5
sg19
I401130
sg20
g5
sg21
g5
sg22
I384930
sg23
g5
sg24
F145036719.78205156
sg25
F2107385.024934186
sg26
I384930
sg27
I63744
sg28
F0.0
sg29
I762135
sg30
L377205L
sg31
F384930.0
sg32
F0.0
sg33
g5
ssS'WALTERS GARETH W'
p89
(dp90
g3
g5
sg4
I53625
sg6
I33785
sg7
I00
sg8
F145117228.6419298
sg9
g5
sg10
g5
sg12
g5
sg13
g5
sg14
F0.0
sg15
g5
sg16
g5
sg17
g5
sg18
g5
sg19
g5
sg20
g5
sg21
g5
sg22
I1030329
sg23
g5
sg24
F145105976.75482282
sg25
F1807085.7043748407
sg26
g5
sg27
g5
sg28
F0.0
sg29
I87410
sg30
L942919L
sg31
F1.0
sg32
F0.0
sg33
I1030329
ssS'WALLS JR ROBERT H'
p91
(dp92
g3
I671
sg4
g5
sg6
I50936
sg7
I00
sg8
F141487873.9839682
sg9
I540751
sg10
S'rob.walls@enron.com'
p93
sg12
I17
sg13
g5
sg14
F0.02533532041728763
sg15
g5
sg16
I215
sg17
g5
sg18
I146
sg19
I2
sg20
g5
sg21
I850000
sg22
I5898997
sg23
I0
sg24
F141390401.35535097
sg25
F5250989.3425941765
sg26
I1552453
sg27
I357091
sg28
F0.0
sg29
I1798780
sg30
L4100217L
sg31
F1.3571695121457414
sg32
F0.0
sg33
I4346544
ssS'KITCHEN LOUISE'
p94
(dp95
g3
I8305
sg4
g5
sg6
I5774
sg7
I00
sg8
F142981802.93638393
sg9
g5
sg10
S'louise.kitchen@enron.com'
p96
sg12
I251
sg13
g5
sg14
F0.030222757375075255
sg15
g5
sg16
I3669
sg17
g5
sg18
I1728
sg19
I93925
sg20
g5
sg21
I3100000
sg22
I547143
sg23
I194
sg24
F142933480.42710114
sg25
F3717007.389611248
sg26
I466101
sg27
I271442
sg28
F3.7147013796665194
sg29
I3471141
sg30
L2923998L
sg31
F6.751351151254905
sg32
F0.11226851851851852
sg33
I81042
ssS'CHAN RONNIE'
p97
(dp98
g3
g5
sg4
g5
sg6
g5
sg7
I00
sg8
F145775014.732367
sg9
g5
sg10
g5
sg12
g5
sg13
I-98784
sg14
F0.0
sg15
I-32460
sg16
g5
sg17
g5
sg18
g5
sg19
g5
sg20
I98784
sg21
g5
sg22
g5
sg23
g5
sg24
F145748825.98160788
sg25
F2763086.1739726183
sg26
I32460
sg27
g5
sg28
F0.0
sg29
g5
sg30
L0L
sg31
F1.0
sg32
F0.0
sg33
g5
ssS'BELFER ROBERT'
p99
(dp100
g3
g5
sg4
I-102500
sg6
g5
sg7
I00
sg8
F145719811.0144264
sg9
g5
sg10
g5
sg12
g5
sg13
g5
sg14
F0.0
sg15
I44093
sg16
g5
sg17
g5
sg18
g5
sg19
g5
sg20
I3285
sg21
g5
sg22
I-44093
sg23
g5
sg24
F145693713.53920648
sg25
F2757744.9548127875
sg26
g5
sg27
g5
sg28
F0.0
sg29
I102500
sg30
L146593L
sg31
F-13.422526636225266
sg32
F0.0
sg33
I3285
ssS'SHANKMAN JEFFREY A'
p101
(dp102
g3
I3221
sg4
g5
sg6
I178979
sg7
I00
sg8
F142428667.68762758
sg9
I554422
sg10
S'jeffrey.shankman@enron.com'
p103
sg12
I94
sg13
g5
sg14
F0.029183483390251473
sg15
g5
sg16
I1730
sg17
g5
sg18
I2681
sg19
I1191
sg20
g5
sg21
I2000000
sg22
I2072035
sg23
I83
sg24
F142411121.1969806
sg25
F2235607.0074031428
sg26
I630137
sg27
I304110
sg28
F1.0608259858579285
sg29
I3038702
sg30
L966667L
sg31
F1.4370191234054004
sg32
F0.030958597538232
sg33
I1441898
ssS'WODRASKA JOHN'
p104
(dp105
g3
g5
sg4
g5
sg6
g5
sg7
I00
sg8
F145642288.48549092
sg9
g5
sg10
S'john.wodraska@enron.com'
p106
sg12
g5
sg13
g5
sg14
F0.0
sg15
g5
sg16
g5
sg17
g5
sg18
g5
sg19
I189583
sg20
g5
sg21
g5
sg22
g5
sg23
g5
sg24
F145617601.4085256
sg25
F2681483.790503679
sg26
g5
sg27
g5
sg28
F0.0
sg29
I189583
sg30
L189583L
sg31
F1.0
sg32
F0.0
sg33
g5
ssS'BERGSIEKER RICHARD P'
p107
(dp108
g3
I383
sg4
g5
sg6
I59175
sg7
I00
sg8
F145021310.4596775
sg9
I180250
sg10
S'rick.bergsieker@enron.com'
p109
sg12
I4
sg13
I-485813
sg14
F0.010443864229765013
sg15
g5
sg16
I233
sg17
g5
sg18
I59
sg19
I427316
sg20
g5
sg21
I250000
sg22
I659249
sg23
I0
sg24
F145008453.8601269
sg25
F1931009.2018434494
sg26
I659249
sg27
I187922
sg28
F0.0
sg29
I618850
sg30
L40399L
sg31
F659249.0
sg32
F0.0
sg33
g5
ssS'URQUHART JOHN A'
p110
(dp111
g3
g5
sg4
g5
sg6
I228656
sg7
I00
sg8
F145614144.67422873
sg9
g5
sg10
g5
sg12
g5
sg13
I-36666
sg14
F0.0
sg15
g5
sg16
g5
sg17
g5
sg18
g5
sg19
g5
sg20
I36666
sg21
g5
sg22
g5
sg23
g5
sg24
F145589800.76719666
sg25
F2662525.4506190834
sg26
g5
sg27
g5
sg28
F0.0
sg29
I228656
sg30
L228656L
sg31
F1.0
sg32
F0.0
sg33
g5
ssS'BIBI PHILIPPE A'
p112
(dp113
g3
I1607
sg4
g5
sg6
I38559
sg7
I00
sg8
F143252991.528996
sg9
I369721
sg10
S'philippe.bibi@enron.com'
p114
sg12
I23
sg13
g5
sg14
F0.01431238332296204
sg15
g5
sg16
I1336
sg17
g5
sg18
I40
sg19
I425688
sg20
g5
sg21
I1000000
sg22
I1843816
sg23
I8
sg24
F143250173.11191586
sg25
F898601.9211730859
sg26
I378082
sg27
I213625
sg28
F13.973913043478262
sg29
I2047593
sg30
L203777L
sg31
F1.2579472127957734
sg32
F0.2
sg33
I1465734
ssS'PIRO JIM'
p115
(dp116
g3
I58
sg4
g5
sg6
g5
sg7
I00
sg8
F145757093.9613645
sg9
g5
sg10
S'jim.piro@enron.com'
p117
sg12
I0
sg13
g5
sg14
F0.0
sg15
g5
sg16
I3
sg17
g5
sg18
I16
sg19
g5
sg20
g5
sg21
g5
sg22
I47304
sg23
I1
sg24
F145731526.944112
sg25
F2729925.749832774
sg26
I47304
sg27
g5
sg28
F0.0
sg29
g5
sg30
L47304L
sg31
F47304.0
sg32
F0.0625
sg33
g5
ssS'RIEKER PAULA H'
p118
(dp119
g3
I1328
sg4
I214678
sg6
I33271
sg7
I01
sg8
F143892878.57512495
sg9
g5
sg10
S'paula.rieker@enron.com'
p120
sg12
I35
sg13
I-100000
sg14
F0.02635542168674699
sg15
g5
sg16
I1258
sg17
g5
sg18
I82
sg19
I1950
sg20
g5
sg21
I700000
sg22
I1918887
sg23
I48
sg24
F143891136.33672768
sg25
F708087.8200491829
sg26
I283649
sg27
I249201
sg28
F22.21045296167247
sg29
I1099100
sg30
L819787L
sg31
F1.1734603770215712
sg32
F0.5853658536585366
sg33
I1635238
ssS'WHALEY DAVID A'
p121
(dp122
g3
g5
sg4
g5
sg6
g5
sg7
I00
sg8
F145720130.32401004
sg9
g5
sg10
g5
sg12
g5
sg13
g5
sg14
F0.0
sg15
g5
sg16
g5
sg17
g5
sg18
g5
sg19
g5
sg20
g5
sg21
g5
sg22
I98718
sg23
g5
sg24
F145695772.1978047
sg25
F2664272.007860723
sg26
g5
sg27
g5
sg28
F0.0
sg29
g5
sg30
L98718L
sg31
F1.0
sg32
F0.0
sg33
I98718
ssS'BECK SALLY W'
p123
(dp124
g3
I7315
sg4
g5
sg6
I37172
sg7
I00
sg8
F144993503.76313588
sg9
g5
sg10
S'sally.beck@enron.com'
p125
sg12
I144
sg13
g5
sg14
F0.01968557758031442
sg15
g5
sg16
I2639
sg17
g5
sg18
I4343
sg19
I566
sg20
g5
sg21
I700000
sg22
I126027
sg23
I386
sg24
F144976282.2122245
sg25
F2234665.395967365
sg26
I126027
sg27
I231330
sg28
F4.514912247038658
sg29
I969068
sg30
L843041L
sg31
F126027.0
sg32
F0.08887865530739121
sg33
g5
ssS'HAUG DAVID L'
p126
(dp127
g3
I573
sg4
g5
sg6
I475
sg7
I00
sg8
F144833655.57448006
sg9
g5
sg10
S'david.haug@enron.com'
p128
sg12
I4
sg13
g5
sg14
F0.006980802792321117
sg15
g5
sg16
I471
sg17
g5
sg18
I19
sg19
g5
sg20
g5
sg21
g5
sg22
I2217299
sg23
I7
sg24
F144810928.68460032
sg25
F2565681.307317893
sg26
I2217299
sg27
g5
sg28
F52.77631578947368
sg29
I475
sg30
L2216824L
sg31
F2217299.0
sg32
F0.3684210526315789
sg33
g5
ssS'ECHOLS JOHN B'
p129
(dp130
g3
g5
sg4
g5
sg6
I21530
sg7
I00
sg8
F143300457.39727566
sg9
I2234774
sg10
S'john.echols@enron.com'
p131
sg12
g5
sg13
g5
sg14
F0.0
sg15
g5
sg16
g5
sg17
g5
sg18
g5
sg19
I53775
sg20
g5
sg21
I200000
sg22
I1008941
sg23
g5
sg24
F143276717.30585152
sg25
F2608326.729442679
sg26
I407503
sg27
I182245
sg28
F0.0
sg29
I2692324
sg30
L1683383L
sg31
F1.6775478104143735
sg32
F0.0
sg33
I601438
ssS'MENDELSOHN JOHN'
p132
(dp133
g3
g5
sg4
g5
sg6
I148
sg7
I00
sg8
F145778303.8656326
sg9
g5
sg10
g5
sg12
g5
sg13
I-103750
sg14
F0.0
sg15
g5
sg16
g5
sg17
g5
sg18
g5
sg19
g5
sg20
I103750
sg21
g5
sg22
g5
sg23
g5
sg24
F145751997.84283975
sg25
F2769296.438004212
sg26
g5
sg27
g5
sg28
F0.0
sg29
I148
sg30
L148L
sg31
F1.0
sg32
F0.0
sg33
g5
ssS'HICKERSON GARY J'
p134
(dp135
g3
I1320
sg4
g5
sg6
I98849
sg7
I00
sg8
F144029172.85144755
sg9
I69223
sg10
S'gary.hickerson@enron.com'
p136
sg12
I40
sg13
g5
sg14
F0.030303030303030304
sg15
g5
sg16
I900
sg17
g5
sg18
I27
sg19
I1936
sg20
g5
sg21
I1700000
sg22
I441096
sg23
I1
sg24
F144010757.91648042
sg25
F2303092.8320476194
sg26
I441096
sg27
I211788
sg28
F1.222222222222222
sg29
I2081796
sg30
L1640700L
sg31
F441096.0
sg32
F0.037037037037037035
sg33
g5
ssS'CLINE KENNETH W'
p137
(dp138
g3
g5
sg4
g5
sg6
g5
sg7
I00
sg8
F145647403.4458754
sg9
g5
sg10
g5
sg12
g5
sg13
g5
sg14
F0.0
sg15
I-472568
sg16
g5
sg17
g5
sg18
g5
sg19
g5
sg20
g5
sg21
g5
sg22
I189518
sg23
g5
sg24
F145623666.81551853
sg25
F2629409.3877616352
sg26
I662086
sg27
g5
sg28
F0.0
sg29
g5
sg30
L189518L
sg31
F189518.0
sg32
F0.0
sg33
g5
ssS'LEWIS RICHARD'
p139
(dp140
g3
I952
sg4
g5
sg6
g5
sg7
I00
sg8
F145282973.37734503
sg9
g5
sg10
S'richard.lewis@enron.com'
p141
sg12
I10
sg13
g5
sg14
F0.01050420168067227
sg15
g5
sg16
I739
sg17
g5
sg18
I26
sg19
g5
sg20
g5
sg21
g5
sg22
I850477
sg23
I0
sg24
F145269418.2139286
sg25
F1984561.7020012294
sg26
g5
sg27
g5
sg28
F0.0
sg29
g5
sg30
L850477L
sg31
F1.0
sg32
F0.0
sg33
I850477
ssS'HAYES ROBERT E'
p142
(dp143
g3
I504
sg4
I7961
sg6
g5
sg7
I00
sg8
F145704231.8724105
sg9
g5
sg10
S'robert.hayes@enron.com'
p144
sg12
I16
sg13
g5
sg14
F0.031746031746031744
sg15
g5
sg16
I50
sg17
g5
sg18
I12
sg19
g5
sg20
g5
sg21
g5
sg22
I151418
sg23
I0
sg24
F145680360.55209705
sg25
F2637372.7344026887
sg26
I151418
sg27
g5
sg28
F0.0
sg29
I7961
sg30
L143457L
sg31
F151418.0
sg32
F0.0
sg33
g5
ssS'KOPPER MICHAEL J'
p145
(dp146
g3
g5
sg4
g5
sg6
I118134
sg7
I01
sg8
F143410681.25136405
sg9
I602671
sg10
S'michael.kopper@enron.com'
p147
sg12
g5
sg13
g5
sg14
F0.0
sg15
g5
sg16
g5
sg17
g5
sg18
g5
sg19
I907502
sg20
g5
sg21
I800000
sg22
I985032
sg23
g5
sg24
F143396258.80505738
sg25
F2033828.3342869713
sg26
I985032
sg27
I224305
sg28
F0.0
sg29
I2652612
sg30
L1667580L
sg31
F985032.0
sg32
F0.0
sg33
g5
ssS'LEFF DANIEL P'
p148
(dp149
g3
I2822
sg4
g5
sg6
g5
sg7
I00
sg8
F143660845.19817466
sg9
I1387399
sg10
S'dan.leff@enron.com'
p150
sg12
I67
sg13
g5
sg14
F0.02374202693125443
sg15
g5
sg16
I2672
sg17
g5
sg18
I63
sg19
I3083
sg20
g5
sg21
I1000000
sg22
I360528
sg23
I14
sg24
F143637143.00462982
sg25
F2609519.5959070507
sg26
I360528
sg27
I273746
sg28
F9.359867330016582
sg29
I2664228
sg30
L2303700L
sg31
F360528.0
sg32
F0.2222222222222222
sg33
g5
ssS'LAVORATO JOHN J'
p151
(dp152
g3
I7259
sg4
g5
sg6
I49537
sg7
I00
sg8
F136072422.57479632
sg9
I2035380
sg10
S'john.lavorato@enron.com'
p153
sg12
I528
sg13
g5
sg14
F0.07273729163796666
sg15
g5
sg16
I3962
sg17
g5
sg18
I2585
sg19
I1552
sg20
g5
sg21
I8000000
sg22
I5167144
sg23
I411
sg24
F135484063.59950754
sg25
F12640122.465329707
sg26
I1008149
sg27
I339288
sg28
F2.185869087392298
sg29
I10425757
sg30
L5258613L
sg31
F1.2424020706925591
sg32
F0.15899419729206962
sg33
I4158995
ssS'BERBERIAN DAVID'
p154
(dp155
g3
g5
sg4
g5
sg6
I11892
sg7
I00
sg8
F144312006.8673553
sg9
g5
sg10
S'david.berberian@enron.com'
p156
sg12
g5
sg13
g5
sg14
F0.0
sg15
g5
sg16
g5
sg17
g5
sg18
g5
sg19
g5
sg20
g5
sg21
g5
sg22
I2493616
sg23
g5
sg24
F144303379.4727347
sg25
F1577973.0135618704
sg26
I869220
sg27
I216582
sg28
F0.0
sg29
I228474
sg30
L2265142L
sg31
F1.53510350924282
sg32
F0.0
sg33
I1624396
ssS'DETMERING TIMOTHY J'
p157
(dp158
g3
g5
sg4
I875307
sg6
I52255
sg7
I00
sg8
F143700211.20959136
sg9
I415657
sg10
S'timothy.detmering@enron.com'
p159
sg12
g5
sg13
I-775241
sg14
F0.0
sg15
I-315068
sg16
g5
sg17
g5
sg18
g5
sg19
I1105
sg20
g5
sg21
I425000
sg22
I2027865
sg23
g5
sg24
F143693635.94239625
sg25
F1374660.4436211921
sg26
I315068
sg27
I210500
sg28
F0.0
sg29
I1204583
sg30
L823282L
sg31
F1.0
sg32
F0.0
sg33
I2027865
ssS'WAKEHAM JOHN'
p160
(dp161
g3
g5
sg4
g5
sg6
I103773
sg7
I00
sg8
F145625501.3242795
sg9
g5
sg10
g5
sg12
g5
sg13
g5
sg14
F0.0
sg15
g5
sg16
g5
sg17
g5
sg18
g5
sg19
g5
sg20
I109298
sg21
g5
sg22
g5
sg23
g5
sg24
F145600969.84129682
sg25
F2672866.854427816
sg26
g5
sg27
g5
sg28
F0.0
sg29
I213071
sg30
L213071L
sg31
F1.0
sg32
F0.0
sg33
g5
ssS'POWERS WILLIAM'
p162
(dp163
g3
I653
sg4
g5
sg6
g5
sg7
I00
sg8
F145778539.4246607
sg9
g5
sg10
S'ken.powers@enron.com'
p164
sg12
I0
sg13
I-17500
sg14
F0.0
sg15
g5
sg16
I12
sg17
g5
sg18
I26
sg19
g5
sg20
I17500
sg21
g5
sg22
g5
sg23
I0
sg24
F145752208.77650872
sg25
F2770594.440976961
sg26
g5
sg27
g5
sg28
F0.0
sg29
g5
sg30
L0L
sg31
F1.0
sg32
F0.0
sg33
g5
ssS'GOLD JOSEPH'
p165
(dp166
g3
g5
sg4
g5
sg6
g5
sg7
I00
sg8
F143754231.69928345
sg9
I304805
sg10
S'joe.gold@enron.com'
p167
sg12
g5
sg13
g5
sg14
F0.0
sg15
g5
sg16
g5
sg17
g5
sg18
g5
sg19
I819288
sg20
g5
sg21
I750000
sg22
I877611
sg23
g5
sg24
F143746450.50672966
sg25
F1495693.2063715598
sg26
I441096
sg27
I272880
sg28
F0.0
sg29
I2146973
sg30
L1269362L
sg31
F2.0104944847256108
sg32
F0.0
sg33
I436515
ssS'BANNANTINE JAMES M'
p168
(dp169
g3
I566
sg4
g5
sg6
I56301
sg7
I00
sg8
F142405114.1593253
sg9
g5
sg10
S'james.bannantine@enron.com'
p170
sg12
I39
sg13
I-5104
sg14
F0.06890459363957598
sg15
I-560222
sg16
I465
sg17
g5
sg18
I29
sg19
I864523
sg20
g5
sg21
g5
sg22
I5243487
sg23
I0
sg24
F142327772.18751982
sg25
F4692739.377797565
sg26
I1757552
sg27
I477
sg28
F0.0
sg29
I916197
sg30
L4327290L
sg31
F1.2959178301781171
sg32
F0.0
sg33
I4046157
ssS'DUNCAN JOHN H'
p171
(dp172
g3
g5
sg4
g5
sg6
g5
sg7
I00
sg8
F145503865.13924935
sg9
g5
sg10
g5
sg12
g5
sg13
I-25000
sg14
F0.0
sg15
g5
sg16
g5
sg17
g5
sg18
g5
sg19
g5
sg20
I102492
sg21
g5
sg22
I371750
sg23
g5
sg24
F145485027.76581788
sg25
F2341253.1772663607
sg26
g5
sg27
g5
sg28
F0.0
sg29
I77492
sg30
L294258L
sg31
F1.0
sg32
F0.0
sg33
I371750
ssS'SHAPIRO RICHARD S'
p173
(dp174
g3
I15149
sg4
g5
sg6
I137767
sg7
I00
sg8
F144463248.01596487
sg9
g5
sg10
S'richard.shapiro@enron.com'
p175
sg12
I74
sg13
g5
sg14
F0.0048848108786058485
sg15
g5
sg16
I4527
sg17
g5
sg18
I1215
sg19
I705
sg20
g5
sg21
I650000
sg22
I987001
sg23
I65
sg24
F144458322.54131988
sg25
F1192927.4370930695
sg26
I379164
sg27
I269076
sg28
F10.951896340785229
sg29
I1057548
sg30
L70547L
sg31
F1.6237922337731991
sg32
F0.053497942386831275
sg33
I607837
ssS'SHERRIFF JOHN R'
p176
(dp177
g3
I3187
sg4
g5
sg6
g5
sg7
I00
sg8
F141056182.75948548
sg9
I554422
sg10
S'john.sherriff@enron.com'
p178
sg12
I28
sg13
g5
sg14
F0.008785691873235017
sg15
g5
sg16
I2103
sg17
g5
sg18
I92
sg19
I1852186
sg20
g5
sg21
I1500000
sg22
I3128982
sg23
I23
sg24
F141012830.53861126
sg25
F3496901.2234081887
sg26
I1293424
sg27
I428780
sg28
F28.455357142857142
sg29
I4335388
sg30
L1206406L
sg31
F1.704648940540152
sg32
F0.25
sg33
I1835558
ssS'SHELBY REX'
p179
(dp180
g3
I225
sg4
g5
sg6
I22884
sg7
I01
sg8
F143032438.5003707
sg9
g5
sg10
S'rex.shelby@enron.com'
p181
sg12
I13
sg13
I-4167
sg14
F0.057777777777777775
sg15
g5
sg16
I91
sg17
g5
sg18
I39
sg19
I1573324
sg20
g5
sg21
I200000
sg22
I2493616
sg23
I14
sg24
F143027801.28098196
sg25
F1151748.275566066
sg26
I869220
sg27
I211844
sg28
F6.21301775147929
sg29
I2003885
sg30
L489731L
sg31
F1.53510350924282
sg32
F0.358974358974359
sg33
I1624396
ssS'LEMAISTRE CHARLES'
p182
(dp183
g3
g5
sg4
g5
sg6
g5
sg7
I00
sg8
F145472665.30416635
sg9
g5
sg10
g5
sg12
g5
sg13
I-25000
sg14
F0.0
sg15
g5
sg16
g5
sg17
g5
sg18
g5
sg19
g5
sg20
I112492
sg21
g5
sg22
I412878
sg23
g5
sg24
F145454547.8455428
sg25
F2295835.740359035
sg26
g5
sg27
g5
sg28
F0.0
sg29
I87492
sg30
L325386L
sg31
F1.0
sg32
F0.0
sg33
I412878
ssS'DEFFNER JOSEPH M'
p184
(dp185
g3
I714
sg4
g5
sg6
I41626
sg7
I00
sg8
F144802312.2339527
sg9
I335349
sg10
S'joseph.deffner@enron.com'
p186
sg12
I115
sg13
g5
sg14
F0.16106442577030813
sg15
g5
sg16
I552
sg17
g5
sg18
I74
sg19
I25553
sg20
g5
sg21
I600000
sg22
I159211
sg23
I4
sg24
F144786489.0563256
sg25
F2140610.9038389684
sg26
I141833
sg27
I206121
sg28
F0.3356051703877791
sg29
I1208649
sg30
L1049438L
sg31
F9.161641155483945
sg32
F0.05405405405405406
sg33
I17378
ssS'KISHKILL JOSEPH G'
p187
(dp188
g3
g5
sg4
g5
sg6
I116335
sg7
I00
sg8
F144813926.40817487
sg9
g5
sg10
S'joe.kishkill@enron.com'
p189
sg12
g5
sg13
I-51042
sg14
F0.0
sg15
g5
sg16
g5
sg17
g5
sg18
g5
sg19
I465357
sg20
g5
sg21
g5
sg22
I1034346
sg23
g5
sg24
F144802806.3519706
sg25
F1794590.3003152625
sg26
I1034346
sg27
I174246
sg28
F0.0
sg29
I704896
sg30
L329450L
sg31
F1034346.0
sg32
F0.0
sg33
g5
ssS'WHALLEY LAWRENCE G'
p190
(dp191
g3
I6019
sg4
g5
sg6
I57838
sg7
I00
sg8
F139471350.17443272
sg9
I808346
sg10
S'greg.whalley@enron.com'
p192
sg12
I186
sg13
g5
sg14
F0.03090214321315833
sg15
g5
sg16
I3920
sg17
g5
sg18
I556
sg19
I301026
sg20
g5
sg21
I3000000
sg22
I6079137
sg23
I24
sg24
F139313155.18889806
sg25
F6640957.06907077
sg26
I2796177
sg27
I510364
sg28
F1.3968438152703644
sg29
I4677574
sg30
L1401563L
sg31
F1.8517243585057388
sg32
F0.04316546762589928
sg33
I3282960
ssS'MCCARTY DANNY J'
p193
(dp194
g3
I1433
sg4
g5
sg6
g5
sg7
I00
sg8
F145347706.6035619
sg9
g5
sg10
S'danny.mccarty@enron.com'
p195
sg12
I25
sg13
g5
sg14
F0.017445917655268667
sg15
g5
sg16
I508
sg17
g5
sg18
I215
sg19
g5
sg20
g5
sg21
g5
sg22
I758931
sg23
I2
sg24
F145333300.42369005
sg25
F2046363.3285826591
sg26
I94556
sg27
g5
sg28
F0.5332093023255814
sg29
g5
sg30
L758931L
sg31
F1.1423232361241769
sg32
F0.009302325581395349
sg33
I664375
ssS'MCCONNELL MICHAEL S'
p196
(dp197
g3
I3329
sg4
g5
sg6
I81364
sg7
I00
sg8
F142662206.10092452
sg9
I554422
sg10
S'mike.mcconnell@enron.com'
p198
sg12
I92
sg13
g5
sg14
F0.02763592670471613
sg15
g5
sg16
I2189
sg17
g5
sg18
I2742
sg19
I540
sg20
g5
sg21
I1100000
sg22
I3101279
sg23
I194
sg24
F142650147.13000134
sg25
F1854878.2632925261
sg26
I1478269
sg27
I365038
sg28
F2.5601195572891893
sg29
I2101364
sg30
L999915L
sg31
F1.910819403454076
sg32
F0.07075127644055434
sg33
I1623010
ssS'DELAINEY DAVID W'
p199
(dp200
g3
I3093
sg4
g5
sg6
I86174
sg7
I01
sg8
F140475032.71261057
sg9
I1294981
sg10
S'david.delainey@enron.com'
p201
sg12
I66
sg13
g5
sg14
F0.02133850630455868
sg15
g5
sg16
I2097
sg17
g5
sg18
I3069
sg19
I1661
sg20
g5
sg21
I3000000
sg22
I3614261
sg23
I609
sg24
F140392938.12699726
sg25
F4801847.527580513
sg26
I1323148
sg27
I365163
sg28
F9.299431262774371
sg29
I4747979
sg30
L1133718L
sg31
F1.5775131999163725
sg32
F0.198435972629521
sg33
I2291113
ssS'SULLIVAN-SHAKLOVITZ COLLEEN'
p202
(dp203
g3
g5
sg4
I181993
sg6
g5
sg7
I00
sg8
F144255755.55234656
sg9
I554422
sg10
g5
sg12
g5
sg13
g5
sg14
F0.0
sg15
g5
sg16
g5
sg17
g5
sg18
g5
sg19
I162
sg20
g5
sg21
I100000
sg22
I1362375
sg23
g5
sg24
F144251861.8717674
sg25
F1059885.1385444254
sg26
g5
sg27
I162779
sg28
F0.0
sg29
I999356
sg30
L363019L
sg31
F1.0
sg32
F0.0
sg33
I1362375
ssS'WROBEL BRUCE'
p204
(dp205
g3
g5
sg4
g5
sg6
g5
sg7
I00
sg8
F145696269.00344336
sg9
g5
sg10
g5
sg12
g5
sg13
g5
sg14
F0.0
sg15
g5
sg16
g5
sg17
g5
sg18
g5
sg19
g5
sg20
g5
sg21
g5
sg22
I139130
sg23
g5
sg24
F145672687.25951567
sg25
F2621256.9723462337
sg26
g5
sg27
g5
sg28
F0.0
sg29
g5
sg30
L139130L
sg31
F1.0
sg32
F0.0
sg33
I139130
ssS'LINDHOLM TOD A'
p206
(dp207
g3
g5
sg4
I204075
sg6
I57727
sg7
I00
sg8
F143482400.168374
sg9
I175000
sg10
S'tod.lindholm@enron.com'
p208
sg12
g5
sg13
g5
sg14
F0.0
sg15
g5
sg16
g5
sg17
g5
sg18
g5
sg19
I2630
sg20
g5
sg21
I200000
sg22
I3064208
sg23
g5
sg24
F143469305.83896837
sg25
F1938411.7627501562
sg26
I514847
sg27
I236457
sg28
F0.0
sg29
I875889
sg30
L2188319L
sg31
F1.2019513909564004
sg32
F0.0
sg33
I2549361
ssS'MEYER JEROME J'
p209
(dp210
g3
g5
sg4
g5
sg6
I2151
sg7
I00
sg8
F145776941.01004708
sg9
g5
sg10
g5
sg12
g5
sg13
I-38346
sg14
F0.0
sg15
g5
sg16
g5
sg17
g5
sg18
g5
sg19
g5
sg20
I38346
sg21
g5
sg22
g5
sg23
g5
sg24
F145750645.53668272
sg25
F2768728.2075017667
sg26
g5
sg27
g5
sg28
F0.0
sg29
I2151
sg30
L2151L
sg31
F1.0
sg32
F0.0
sg33
g5
ssS'LAY KENNETH L'
p211
(dp212
g3
I4273
sg4
I202911
sg6
I99832
sg7
I01
sg8
F143771030.76039174
sg9
I3600000
sg10
S'kenneth.lay@enron.com'
p213
sg12
I123
sg13
I-300000
sg14
F0.028785396676807865
sg15
g5
sg16
I2411
sg17
I81525000
sg18
I36
sg19
I10359729
sg20
g5
sg21
I7000000
sg22
I49110078
sg23
I16
sg24
F0.0
sg25
F143771030.76039174
sg26
I14761694
sg27
I1072321
sg28
F15.439927732610657
sg29
I103559793
sg30
L54449715L
sg31
F1.4297638573040292
sg32
F0.4444444444444444
sg33
I34348384
ssS'BUTTS ROBERT H'
p214
(dp215
g3
g5
sg4
g5
sg6
I9410
sg7
I00
sg8
F144640618.61243486
sg9
I175000
sg10
S'bob.butts@enron.com'
p216
sg12
g5
sg13
I-75000
sg14
F0.0
sg15
g5
sg16
g5
sg17
g5
sg18
g5
sg19
I150656
sg20
g5
sg21
I750000
sg22
I417619
sg23
g5
sg24
F144628024.9353016
sg25
F1908652.9023415642
sg26
I417619
sg27
I261516
sg28
F0.0
sg29
I1271582
sg30
L853963L
sg31
F417619.0
sg32
F0.0
sg33
g5
ssS'OLSON CINDY K'
p217
(dp218
g3
I1184
sg4
I77716
sg6
I63791
sg7
I00
sg8
F143439139.81921953
sg9
I100000
sg10
S'cindy.olson@enron.com'
p219
sg12
I20
sg13
g5
sg14
F0.016891891891891893
sg15
g5
sg16
I856
sg17
g5
sg18
I52
sg19
I972
sg20
g5
sg21
I750000
sg22
I2606763
sg23
I15
sg24
F143435567.8787856
sg25
F1012274.3540623055
sg26
I969729
sg27
I329078
sg28
F17.076923076923073
sg29
I1321557
sg30
L1285206L
sg31
F1.5923694926311853
sg32
F0.28846153846153844
sg33
I1637034
ssS'MCDONALD REBECCA'
p220
(dp221
g3
I894
sg4
g5
sg6
g5
sg7
I00
sg8
F144931219.9764281
sg9
g5
sg10
S'rebecca.mcdonald@enron.com'
p222
sg12
I54
sg13
g5
sg14
F0.06040268456375839
sg15
g5
sg16
I720
sg17
g5
sg18
I13
sg19
g5
sg20
g5
sg21
g5
sg22
I1691366
sg23
I1
sg24
F144921688.59427935
sg25
F1662136.8290591808
sg26
I934065
sg27
g5
sg28
F1.2735042735042734
sg29
g5
sg30
L1691366L
sg31
F2.2334131342755392
sg32
F0.07692307692307693
sg33
I757301
ssS'CUMBERLAND MICHAEL S'
p223
(dp224
g3
g5
sg4
g5
sg6
I22344
sg7
I00
sg8
F145081382.16359136
sg9
I275000
sg10
g5
sg12
g5
sg13
g5
sg14
F0.0
sg15
g5
sg16
g5
sg17
g5
sg18
g5
sg19
I713
sg20
g5
sg21
I325000
sg22
I207940
sg23
g5
sg24
F145064943.77495062
sg25
F2183927.2122627962
sg26
I207940
sg27
I184899
sg28
F0.0
sg29
I807956
sg30
L600016L
sg31
F207940.0
sg32
F0.0
sg33
g5
ssS'GAHN ROBERT S'
p225
(dp226
g3
g5
sg4
I73122
sg6
I50080
sg7
I00
sg8
F144951818.46821195
sg9
g5
sg10
g5
sg12
g5
sg13
I-1042
sg14
F0.0
sg15
g5
sg16
g5
sg17
g5
sg18
g5
sg19
I76547
sg20
g5
sg21
I509870
sg22
I318607
sg23
g5
sg24
F144937654.18924385
sg25
F2026345.3211724479
sg26
I235370
sg27
I192008
sg28
F0.0
sg29
I900585
sg30
L581978L
sg31
F3.827708831409109
sg32
F0.0
sg33
I83237
ssS'MCCLELLAN GEORGE'
p227
(dp228
g3
I1744
sg4
g5
sg6
I228763
sg7
I00
sg8
F144298129.73228198
sg9
g5
sg10
S'george.mcclellan@enron.com'
p229
sg12
I52
sg13
I-125000
sg14
F0.02981651376146789
sg15
g5
sg16
I1469
sg17
g5
sg18
I49
sg19
I51587
sg20
g5
sg21
I900000
sg22
I947861
sg23
I0
sg24
F144292701.89604577
sg25
F1251568.5252320955
sg26
I441096
sg27
I263413
sg28
F0.0
sg29
I1318763
sg30
L370902L
sg31
F1.8704152812447583
sg32
F0.0
sg33
I506765
ssS'HERMANN ROBERT J'
p230
(dp231
g3
g5
sg4
g5
sg6
I48357
sg7
I00
sg8
F144486284.6177418
sg9
I150000
sg10
S'robert.hermann@enron.com'
p232
sg12
g5
sg13
I-280000
sg14
F0.0
sg15
g5
sg16
g5
sg17
g5
sg18
g5
sg19
I416441
sg20
g5
sg21
I700000
sg22
I668132
sg23
g5
sg24
F144477460.69821867
sg25
F1596807.0746864239
sg26
I480632
sg27
I262663
sg28
F0.0
sg29
I1297461
sg30
L629329L
sg31
F3.5633706666666667
sg32
F0.0
sg33
I187500
ssS'SCRIMSHAW MATTHEW'
p233
(dp234
g3
g5
sg4
g5
sg6
g5
sg7
I00
sg8
F145335087.53072515
sg9
g5
sg10
S'matthew.scrimshaw@enron.com'
p235
sg12
g5
sg13
g5
sg14
F0.0
sg15
g5
sg16
g5
sg17
g5
sg18
g5
sg19
g5
sg20
g5
sg21
g5
sg22
I759557
sg23
g5
sg24
F145320635.78983137
sg25
F2049507.5512723734
sg26
g5
sg27
g5
sg28
F0.0
sg29
g5
sg30
L759557L
sg31
F1.0
sg32
F0.0
sg33
I759557
ssS'GATHMANN WILLIAM D'
p236
(dp237
g3
g5
sg4
g5
sg6
g5
sg7
I00
sg8
F144686539.47696155
sg9
g5
sg10
g5
sg12
g5
sg13
g5
sg14
F0.0
sg15
I-72419
sg16
g5
sg17
g5
sg18
g5
sg19
g5
sg20
g5
sg21
g5
sg22
I1945360
sg23
g5
sg24
F144676553.53193405
sg25
F1699871.742153105
sg26
I264013
sg27
g5
sg28
F0.0
sg29
g5
sg30
L1945360L
sg31
F1.1092471857705075
sg32
F0.0
sg33
I1753766
ssS'HAEDICKE MARK E'
p238
(dp239
g3
I4009
sg4
I2157527
sg6
I76169
sg7
I00
sg8
F142548771.27052325
sg9
I983346
sg10
S'mark.haedicke@enron.com'
p240
sg12
I180
sg13
I-934484
sg14
F0.04489897730107259
sg15
I-329825
sg16
I1847
sg17
g5
sg18
I1941
sg19
I52382
sg20
g5
sg21
I1150000
sg22
I803094
sg23
I61
sg24
F142502927.1505687
sg25
F3614961.169316773
sg26
I524169
sg27
I374125
sg28
F0.6999513423779266
sg29
I3859065
sg30
L3055971L
sg31
F1.3192509240246406
sg32
F0.03142709943328181
sg33
I608750
ssS'BOWEN JR RAYMOND M'
p241
(dp242
g3
I1858
sg4
g5
sg6
I65907
sg7
I01
sg8
F143697908.95880938
sg9
I974293
sg10
S'raymond.bowen@enron.com'
p243
sg12
I140
sg13
I-833
sg14
F0.07534983853606028
sg15
g5
sg16
I1593
sg17
g5
sg18
I27
sg19
I1621
sg20
g5
sg21
I1350000
sg22
I252055
sg23
I15
sg24
F143673880.40074638
sg25
F2627761.352614495
sg26
I252055
sg27
I278601
sg28
F7.3730158730158735
sg29
I2669589
sg30
L2417534L
sg31
F252055.0
sg32
F0.5555555555555556
sg33
g5
ssS'GILLIS JOHN'
p244
(dp245
g3
g5
sg4
g5
sg6
g5
sg7
I00
sg8
F145738347.94431862
sg9
g5
sg10
g5
sg12
g5
sg13
g5
sg14
F0.0
sg15
g5
sg16
g5
sg17
g5
sg18
g5
sg19
g5
sg20
g5
sg21
g5
sg22
I85641
sg23
g5
sg24
F145713435.65751606
sg25
F2694574.2562067667
sg26
I75838
sg27
g5
sg28
F0.0
sg29
g5
sg30
L85641L
sg31
F8.736203203101091
sg32
F0.0
sg33
I9803
ssS'FITZGERALD JAY L'
p246
(dp247
g3
I936
sg4
g5
sg6
I23870
sg7
I00
sg8
F143928146.94250226
sg9
I556416
sg10
S'jay.fitzgerald@enron.com'
p248
sg12
I1
sg13
g5
sg14
F0.0010683760683760685
sg15
g5
sg16
I723
sg17
g5
sg18
I16
sg19
I285414
sg20
g5
sg21
I350000
sg22
I1621236
sg23
I8
sg24
F143925903.2940958
sg25
F803643.7526047378
sg26
I956775
sg27
I199157
sg28
F467.99999999999994
sg29
I1414857
sg30
L206379L
sg31
F2.4399264968147114
sg32
F0.5
sg33
I664461
ssS'MORAN MICHAEL P'
p249
(dp250
g3
I672
sg4
g5
sg6
g5
sg7
I00
sg8
F145670220.04397306
sg9
g5
sg10
S'michael.moran@enron.com'
p251
sg12
I0
sg13
g5
sg14
F0.0
sg15
g5
sg16
I127
sg17
g5
sg18
I19
sg19
g5
sg20
g5
sg21
g5
sg22
I221141
sg23
I0
sg24
F145647564.81052563
sg25
F2569021.6860241895
sg26
I161602
sg27
g5
sg28
F0.0
sg29
g5
sg30
L221141L
sg31
F3.7142209308184553
sg32
F0.0
sg33
I59539
ssS'REDMOND BRIAN L'
p252
(dp253
g3
I1671
sg4
g5
sg6
I14689
sg7
I00
sg8
F141829399.4851083
sg9
g5
sg10
S'brian.redmond@enron.com'
p254
sg12
I204
sg13
g5
sg14
F0.12208258527827648
sg15
g5
sg16
I1063
sg17
g5
sg18
I221
sg19
g5
sg20
g5
sg21
g5
sg22
I7890324
sg23
I49
sg24
F141552557.05399954
sg25
F8857321.8176059
sg26
I381285
sg27
I96840
sg28
F1.8161431993611923
sg29
I111529
sg30
L7778795L
sg31
F1.050776803796065
sg32
F0.22171945701357465
sg33
I7509039
ssS'BAZELIDES PHILIP J'
p255
(dp256
g3
g5
sg4
I684694
sg6
g5
sg7
I00
sg8
F144240471.88399947
sg9
I93750
sg10
g5
sg12
g5
sg13
g5
sg14
F0.0
sg15
g5
sg16
g5
sg17
g5
sg18
g5
sg19
I874
sg20
g5
sg21
g5
sg22
I1599641
sg23
g5
sg24
F144235132.87961048
sg25
F1241036.8729223278
sg26
g5
sg27
I80818
sg28
F0.0
sg29
I860136
sg30
L739505L
sg31
F1.0
sg32
F0.0
sg33
I1599641
ssS'BELDEN TIMOTHY N'
p257
(dp258
g3
I7991
sg4
I2144013
sg6
I17355
sg7
I01
sg8
F141305001.64623454
sg9
g5
sg10
S'tim.belden@enron.com'
p259
sg12
I228
sg13
I-2334434
sg14
F0.028532098610937303
sg15
g5
sg16
I5521
sg17
g5
sg18
I484
sg19
I210698
sg20
g5
sg21
I5249999
sg22
I1110705
sg23
I108
sg24
F141134183.8080175
sg25
F6945908.946068987
sg26
I157569
sg27
I213999
sg28
F7.820682905611136
sg29
I5501630
sg30
L4390925L
sg31
F1.165316387168253
sg32
F0.2231404958677686
sg33
I953136
ssS'DURAN WILLIAM D'
p260
(dp261
g3
I904
sg4
g5
sg6
I25785
sg7
I00
sg8
F143308588.60309014
sg9
I1105218
sg10
S'w.duran@enron.com'
p262
sg12
I106
sg13
g5
sg14
F0.1172566371681416
sg15
g5
sg16
I599
sg17
g5
sg18
I12
sg19
I1568
sg20
g5
sg21
I750000
sg22
I1640910
sg23
I3
sg24
F143303200.1564928
sg25
F1242735.8198365422
sg26
I189041
sg27
I210692
sg28
F2.132075471698113
sg29
I2093263
sg30
L452353L
sg31
F1.1302052733407766
sg32
F0.25
sg33
I1451869
ssS'THORN TERENCE H'
p263
(dp264
g3
I266
sg4
I16586
sg6
I46145
sg7
I00
sg8
F142573900.48656857
sg9
I200000
sg10
S'terence.thorn@enron.com'
p265
sg12
I0
sg13
g5
sg14
F0.0
sg15
g5
sg16
I73
sg17
g5
sg18
I41
sg19
I426629
sg20
g5
sg21
g5
sg22
I4817796
sg23
I0
sg24
F142503480.93528476
sg25
F4480515.7382702315
sg26
I365320
sg27
I222093
sg28
F0.0
sg29
I911453
sg30
L3906343L
sg31
F1.082048729740486
sg32
F0.0
sg33
I4452476
ssS'FASTOW ANDREW S'
p266
(dp267
g3
g5
sg4
g5
sg6
I55921
sg7
I01
sg8
F143203496.83209214
sg9
I1736055
sg10
S'andrew.fastow@enron.com'
p268
sg12
g5
sg13
I-1386055
sg14
F0.0
sg15
g5
sg16
g5
sg17
g5
sg18
g5
sg19
I277464
sg20
g5
sg21
I1300000
sg22
I1794412
sg23
g5
sg24
F143174982.18620715
sg25
F2857618.0497558415
sg26
I1794412
sg27
I440698
sg28
F0.0
sg29
I2424083
sg30
L629671L
sg31
F1794412.0
sg32
F0.0
sg33
g5
ssS'FOY JOE'
p269
(dp270
g3
I57
sg4
I181755
sg6
g5
sg7
I00
sg8
F145445145.46966037
sg9
g5
sg10
S'tracy.foy@enron.com'
p271
sg12
I0
sg13
g5
sg14
F0.0
sg15
g5
sg16
I2
sg17
g5
sg18
I13
sg19
g5
sg20
g5
sg21
g5
sg22
I343434
sg23
I0
sg24
F145426869.89311048
sg25
F2305613.5372134848
sg26
g5
sg27
g5
sg28
F0.0
sg29
I181755
sg30
L161679L
sg31
F1.0
sg32
F0.0
sg33
I343434
ssS'CALGER CHRISTOPHER F'
p272
(dp273
g3
I2598
sg4
g5
sg6
I35818
sg7
I01
sg8
F144488723.25642338
sg9
I375304
sg10
S'christopher.calger@enron.com'
p274
sg12
I199
sg13
I-262500
sg14
F0.07659738260200154
sg15
g5
sg16
I2188
sg17
g5
sg18
I144
sg19
I486
sg20
g5
sg21
I1250000
sg22
I126027
sg23
I25
sg24
F144470622.62371793
sg25
F2286995.187266334
sg26
I126027
sg27
I240189
sg28
F2.266541038525963
sg29
I1639297
sg30
L1513270L
sg31
F126027.0
sg32
F0.1736111111111111
sg33
g5
ssS'RICE KENNETH D'
p275
(dp276
g3
I905
sg4
g5
sg6
I46950
sg7
I01
sg8
F138436024.53541592
sg9
I1617011
sg10
S'ken.rice@enron.com'
p277
sg12
I42
sg13
I-3504386
sg14
F0.04640883977900553
sg15
g5
sg16
I864
sg17
g5
sg18
I18
sg19
I174839
sg20
g5
sg21
I1750000
sg22
I22542539
sg23
I4
sg24
F135538974.49383852
sg25
F28173024.018178634
sg26
I2748364
sg27
I420636
sg28
F4.788359788359788
sg29
I505050
sg30
L22037489L
sg31
F1.1388471103241231
sg32
F0.2222222222222222
sg33
I19794175
ssS'KAMINSKI WINCENTY J'
p278
(dp279
g3
I4607
sg4
g5
sg6
I83585
sg7
I00
sg8
F144418325.94515905
sg9
I323466
sg10
S'vince.kaminski@enron.com'
p280
sg12
I41
sg13
g5
sg14
F0.008899500759713479
sg15
g5
sg16
I583
sg17
g5
sg18
I14368
sg19
I4669
sg20
g5
sg21
I400000
sg22
I976037
sg23
I171
sg24
F144413738.0422538
sg25
F1151144.4155695254
sg26
I126027
sg27
I275101
sg28
F1.337316326253463
sg29
I1086821
sg30
L110784L
sg31
F1.1482653145257116
sg32
F0.011901447661469933
sg33
I850010
ssS'LOCKHART EUGENE E'
p281
(dp282
g3
g5
sg4
g5
sg6
g5
sg7
I00
sg8
F145778590.51007214
sg9
g5
sg10
g5
sg12
g5
sg13
g5
sg14
F0.0
sg15
g5
sg16
g5
sg17
g5
sg18
g5
sg19
g5
sg20
g5
sg21
g5
sg22
g5
sg23
g5
sg24
F145752242.69537324
sg25
F2771497.857172989
sg26
g5
sg27
g5
sg28
F0.0
sg29
g5
sg30
L0L
sg31
F1.0
sg32
F0.0
sg33
g5
ssS'COX DAVID'
p283
(dp284
g3
I102
sg4
g5
sg6
I27861
sg7
I00
sg8
F144711736.79042932
sg9
g5
sg10
S'chip.cox@enron.com'
p285
sg12
I0
sg13
I-41250
sg14
F0.0
sg15
g5
sg16
I71
sg17
g5
sg18
I33
sg19
I494
sg20
g5
sg21
I800000
sg22
I495633
sg23
I4
sg24
F144700154.03835604
sg25
F1830897.6428325423
sg26
I378082
sg27
I314288
sg28
F0.0
sg29
I1101393
sg30
L605760L
sg31
F4.216323127833876
sg32
F0.12121212121212122
sg33
I117551
ssS'OVERDYKE JR JERE C'
p286
(dp287
g3
g5
sg4
g5
sg6
I18834
sg7
I00
sg8
F142079060.70643055
sg9
I135836
sg10
S'jere.overdyke@enron.com'
p288
sg12
g5
sg13
g5
sg14
F0.0
sg15
g5
sg16
g5
sg17
g5
sg18
g5
sg19
I176
sg20
g5
sg21
g5
sg22
I7307594
sg23
g5
sg24
F141902729.35729188
sg25
F7076361.506646688
sg26
I2041016
sg27
I94941
sg28
F0.0
sg29
I249787
sg30
L7057807L
sg31
F1.3875412079722356
sg32
F0.0
sg33
I5266578
ssS'PEREIRA PAULO V. FERRAZ'
p289
(dp290
g3
g5
sg4
g5
sg6
I27942
sg7
I00
sg8
F145758299.18158227
sg9
g5
sg10
g5
sg12
g5
sg13
I-101250
sg14
F0.0
sg15
g5
sg16
g5
sg17
g5
sg18
g5
sg19
g5
sg20
I101250
sg21
g5
sg22
g5
sg23
g5
sg24
F145732252.60435432
sg25
F2755418.5105556683
sg26
g5
sg27
g5
sg28
F0.0
sg29
I27942
sg30
L27942L
sg31
F1.0
sg32
F0.0
sg33
g5
ssS'STABLER FRANK'
p291
(dp292
g3
g5
sg4
g5
sg6
I16514
sg7
I00
sg8
F144727476.27476728
sg9
g5
sg10
S'frank.stabler@enron.com'
p293
sg12
g5
sg13
g5
sg14
F0.0
sg15
g5
sg16
g5
sg17
g5
sg18
g5
sg19
I356071
sg20
g5
sg21
I500000
sg22
I511734
sg23
g5
sg24
F144715461.27825633
sg25
F1864847.4159621093
sg26
I511734
sg27
I239502
sg28
F0.0
sg29
I1112087
sg30
L600353L
sg31
F511734.0
sg32
F0.0
sg33
g5
ssS'SKILLING JEFFREY K'
p294
(dp295
g3
I3627
sg4
g5
sg6
I29336
sg7
I01
sg8
F132316503.85177955
sg9
I1920000
sg10
S'jeff.skilling@enron.com'
p296
sg12
I88
sg13
g5
sg14
F0.0242624758753791
sg15
g5
sg16
I2042
sg17
g5
sg18
I108
sg19
I22122
sg20
g5
sg21
I5600000
sg22
I26093672
sg23
I30
sg24
F128348399.56535722
sg25
F32161242.522163246
sg26
I6843672
sg27
I1111258
sg28
F11.448863636363637
sg29
I8682716
sg30
L17410956L
sg31
F1.3555154285714286
sg32
F0.2777777777777778
sg33
I19250000
ssS'BLAKE JR. NORMAN P'
p297
(dp298
g3
g5
sg4
g5
sg6
I1279
sg7
I00
sg8
F145777487.88767543
sg9
g5
sg10
g5
sg12
g5
sg13
I-113784
sg14
F0.0
sg15
g5
sg16
g5
sg17
g5
sg18
g5
sg19
g5
sg20
I113784
sg21
g5
sg22
g5
sg23
g5
sg24
F145751188.57015762
sg25
F2768935.7572382856
sg26
g5
sg27
g5
sg28
F0.0
sg29
I1279
sg30
L1279L
sg31
F1.0
sg32
F0.0
sg33
g5
ssS'SHERRICK JEFFREY B'
p299
(dp300
g3
I613
sg4
g5
sg6
g5
sg7
I00
sg8
F144782049.52447456
sg9
g5
sg10
S'jeffrey.sherrick@enron.com'
p301
sg12
I39
sg13
g5
sg14
F0.0636215334420881
sg15
g5
sg16
I583
sg17
g5
sg18
I25
sg19
g5
sg20
g5
sg21
g5
sg22
I1832468
sg23
I18
sg24
F144773299.57528827
sg25
F1591726.9210656066
sg26
I405999
sg27
g5
sg28
F11.316923076923075
sg29
g5
sg30
L1832468L
sg31
F1.2846181725645633
sg32
F0.72
sg33
I1426469
ssS'PRENTICE JAMES'
p302
(dp303
g3
g5
sg4
I564348
sg6
g5
sg7
I00
sg8
F144764629.46948677
sg9
g5
sg10
S'james.prentice@enron.com'
p304
sg12
g5
sg13
g5
sg14
F0.0
sg15
g5
sg16
g5
sg17
g5
sg18
g5
sg19
g5
sg20
g5
sg21
g5
sg22
I1095040
sg23
g5
sg24
F144757258.34700003
sg25
F1460856.3576487887
sg26
I208809
sg27
g5
sg28
F0.0
sg29
I564348
sg30
L530692L
sg31
F1.2356146422321044
sg32
F0.0
sg33
I886231
ssS'GRAY RODNEY'
p305
(dp306
g3
g5
sg4
I93585
sg6
g5
sg7
I00
sg8
F144950676.50149333
sg9
I365625
sg10
g5
sg12
g5
sg13
g5
sg14
F0.0
sg15
g5
sg16
g5
sg17
g5
sg18
g5
sg19
I680833
sg20
g5
sg21
g5
sg22
g5
sg23
g5
sg24
F144930995.86682186
sg25
F2388525.7569974135
sg26
g5
sg27
I6615
sg28
F0.0
sg29
I1146658
sg30
L1146658L
sg31
F1.0
sg32
F0.0
sg33
g5
ssS'PICKERING MARK R'
p307
(dp308
g3
I898
sg4
g5
sg6
I31653
sg7
I00
sg8
F144530851.9903275
sg9
g5
sg10
S'mark.pickering@enron.com'
p309
sg12
I7
sg13
g5
sg14
F0.0077951002227171495
sg15
g5
sg16
I728
sg17
I400000
sg18
I67
sg19
g5
sg20
g5
sg21
I300000
sg22
I28798
sg23
I0
sg24
F144511167.52645317
sg25
F2385296.038512586
sg26
g5
sg27
I655037
sg28
F0.0
sg29
I1386690
sg30
L1357892L
sg31
F1.0
sg32
F0.0
sg33
I28798
ssS'NOLES JAMES L'
p310
(dp311
g3
g5
sg4
I774401
sg6
g5
sg7
I00
sg8
F145050184.90467227
sg9
g5
sg10
g5
sg12
g5
sg13
g5
sg14
F0.0
sg15
I-94556
sg16
g5
sg17
g5
sg18
g5
sg19
g5
sg20
g5
sg21
g5
sg22
I368705
sg23
g5
sg24
F145033361.538544
sg25
F2209113.3310902165
sg26
I463261
sg27
g5
sg28
F0.0
sg29
I774401
sg30
L405696L
sg31
F368705.0
sg32
F0.0
sg33
g5
ssS'KEAN STEVEN J'
p312
(dp313
g3
I12754
sg4
g5
sg6
I41953
sg7
I00
sg8
F141756011.56260875
sg9
I300000
sg10
S'steven.kean@enron.com'
p314
sg12
I140
sg13
g5
sg14
F0.010976948408342482
sg15
g5
sg16
I3639
sg17
g5
sg18
I6759
sg19
I1231
sg20
g5
sg21
I1000000
sg22
I6153642
sg23
I387
sg24
F141643135.88860083
sg25
F5655870.3823395055
sg26
I4131594
sg27
I404338
sg28
F5.216111850865512
sg29
I1747522
sg30
L4406120L
sg31
F3.043271969804871
sg32
F0.05725699067909454
sg33
I2022048
ssS'FOWLER PEGGY'
p315
(dp316
g3
I517
sg4
g5
sg6
g5
sg7
I00
sg8
F144772727.22694248
sg9
g5
sg10
S'kulvinder.fowler@enron.com'
p317
sg12
I0
sg13
g5
sg14
F0.0
sg15
g5
sg16
I10
sg17
g5
sg18
I36
sg19
g5
sg20
g5
sg21
g5
sg22
I1884748
sg23
I0
sg24
F144764236.73221546
sg25
F1567900.5280216243
sg26
I560170
sg27
g5
sg28
F0.0
sg29
g5
sg30
L1884748L
sg31
F1.4229045024151088
sg32
F0.0
sg33
I1324578
ssS'WASAFF GEORGE'
p318
(dp319
g3
I400
sg4
I831299
sg6
g5
sg7
I00
sg8
F143891631.2559827
sg9
I200000
sg10
S'george.wasaff@enron.com'
p320
sg12
I22
sg13
I-583325
sg14
F0.055
sg15
g5
sg16
I337
sg17
g5
sg18
I30
sg19
I1425
sg20
g5
sg21
I325000
sg22
I2056427
sg23
I7
sg24
F143887693.55647862
sg25
F1064513.2712185169
sg26
I388167
sg27
I259996
sg28
F4.242424242424242
sg29
I1034395
sg30
L1022032L
sg31
F1.2326777600613814
sg32
F0.23333333333333334
sg33
I1668260
ssS'WHITE JR THOMAS E'
p321
(dp322
g3
g5
sg4
g5
sg6
I81353
sg7
I00
sg8
F140106574.13768858
sg9
g5
sg10
S'thomas.white@enron.com'
p323
sg12
g5
sg13
g5
sg14
F0.0
sg15
g5
sg16
g5
sg17
g5
sg18
g5
sg19
I1085463
sg20
g5
sg21
I450000
sg22
I15144123
sg23
g5
sg24
F138843549.35494918
sg25
F18770213.614112537
sg26
I13847074
sg27
I317543
sg28
F0.0
sg29
I1934359
sg30
L13209764L
sg31
F11.675829517620382
sg32
F0.0
sg33
I1297049
ssS'CHRISTODOULOU DIOMEDES'
p324
(dp325
g3
g5
sg4
g5
sg6
g5
sg7
I00
sg8
F142711011.05771583
sg9
g5
sg10
S'diomedes.christodoulou@enron.com'
p326
sg12
g5
sg13
g5
sg14
F0.0
sg15
g5
sg16
g5
sg17
g5
sg18
g5
sg19
g5
sg20
g5
sg21
g5
sg22
I6077885
sg23
g5
sg24
F142585377.86769298
sg25
F5986876.935656891
sg26
I950730
sg27
g5
sg28
F0.0
sg29
g5
sg30
L6077885L
sg31
F1.185430321494084
sg32
F0.0
sg33
I5127155
ssS'ALLEN PHILLIP K'
p327
(dp328
g3
I2902
sg4
I2869717
sg6
I13868
sg7
I00
sg8
F141628731.24100512
sg9
I304805
sg10
S'phillip.allen@enron.com'
p329
sg12
I47
sg13
I-3081055
sg14
F0.016195727084769126
sg15
I-126027
sg16
I1407
sg17
g5
sg18
I2195
sg19
I152
sg20
g5
sg21
I4175000
sg22
I1729541
sg23
I65
sg24
F141491399.84605592
sg25
F6235485.750154968
sg26
I126027
sg27
I201955
sg28
F1.8284301846556488
sg29
I4484442
sg30
L2754901L
sg31
F1.0
sg32
F0.029612756264236904
sg33
I1729541
ssS'SHARP VICTORIA T'
p330
(dp331
g3
I3136
sg4
I187469
sg6
I116337
sg7
I00
sg8
F144351765.89525905
sg9
I422158
sg10
S'vicki.sharp@enron.com'
p332
sg12
I24
sg13
g5
sg14
F0.007653061224489796
sg15
g5
sg16
I2477
sg17
g5
sg18
I136
sg19
I2401
sg20
g5
sg21
I600000
sg22
I494136
sg23
I6
sg24
F144341600.98338497
sg25
F1713050.6802064064
sg26
I213063
sg27
I248146
sg28
F5.764705882352942
sg29
I1576511
sg30
L1082375L
sg31
F1.7580343896425483
sg32
F0.04411764705882353
sg33
I281073
ssS'JAEDICKE ROBERT'
p333
(dp334
g3
g5
sg4
g5
sg6
g5
sg7
I00
sg8
F145459733.12034506
sg9
g5
sg10
g5
sg12
g5
sg13
I-25000
sg14
F0.0
sg15
I-44093
sg16
g5
sg17
g5
sg18
g5
sg19
g5
sg20
I108750
sg21
g5
sg22
I431750
sg23
g5
sg24
F145442026.24707446
sg25
F2269572.7763863727
sg26
I44093
sg27
g5
sg28
F0.0
sg29
I83750
sg30
L348000L
sg31
F1.0
sg32
F0.0
sg33
I431750
ssS'WINOKUR JR. HERBERT S'
p335
(dp336
g3
g5
sg4
g5
sg6
I1413
sg7
I00
sg8
F145717439.88626853
sg9
g5
sg10
g5
sg12
g5
sg13
I-25000
sg14
F0.0
sg15
g5
sg16
g5
sg17
g5
sg18
g5
sg19
g5
sg20
I108579
sg21
g5
sg22
g5
sg23
g5
sg24
F145691857.63424453
sg25
F2730367.3912692615
sg26
g5
sg27
g5
sg28
F0.0
sg29
I84992
sg30
L84992L
sg31
F1.0
sg32
F0.0
sg33
g5
ssS'BROWN MICHAEL'
p337
(dp338
g3
I1486
sg4
g5
sg6
I49288
sg7
I00
sg8
F145743119.37429667
sg9
g5
sg10
S'michael.brown@enron.com'
p339
sg12
I13
sg13
g5
sg14
F0.008748317631224764
sg15
g5
sg16
I761
sg17
g5
sg18
I41
sg19
g5
sg20
g5
sg21
g5
sg22
g5
sg23
I1
sg24
F145717226.74372843
sg25
F2747121.23273082
sg26
g5
sg27
g5
sg28
F2.787992495309569
sg29
I49288
sg30
L49288L
sg31
F1.0
sg32
F0.024390243902439025
sg33
g5
ssS'BADUM JAMES P'
p340
(dp341
g3
g5
sg4
I178980
sg6
I3486
sg7
I00
sg8
F145494842.48131642
sg9
g5
sg10
g5
sg12
g5
sg13
g5
sg14
F0.0
sg15
g5
sg16
g5
sg17
g5
sg18
g5
sg19
g5
sg20
g5
sg21
g5
sg22
I257817
sg23
g5
sg24
F145475137.32809457
sg25
F2394495.361261649
sg26
g5
sg27
g5
sg28
F0.0
sg29
I182466
sg30
L75351L
sg31
F1.0
sg32
F0.0
sg33
I257817
ssS'HUGHES JAMES A'
p342
(dp343
g3
I719
sg4
g5
sg6
g5
sg7
I00
sg8
F145177349.94627908
sg9
g5
sg10
S'james.hughes@enron.com'
p344
sg12
I35
sg13
g5
sg14
F0.048678720445062586
sg15
g5
sg16
I589
sg17
g5
sg18
I34
sg19
g5
sg20
g5
sg21
g5
sg22
I1118394
sg23
I5
sg24
F145166204.49088398
sg25
F1798891.64077061
sg26
I363428
sg27
g5
sg28
F3.021008403361345
sg29
g5
sg30
L1118394L
sg31
F1.4813832675908585
sg32
F0.14705882352941177
sg33
I754966
ssS'REYNOLDS LAWRENCE'
p345
(dp346
g3
g5
sg4
I51365
sg6
I8409
sg7
I00
sg8
F143192291.32275528
sg9
I156250
sg10
g5
sg12
g5
sg13
I-200000
sg14
F0.0
sg15
I-140264
sg16
g5
sg17
g5
sg18
g5
sg19
I202052
sg20
g5
sg21
I100000
sg22
I4221891
sg23
g5
sg24
F143136890.458819
sg25
F3982823.626632286
sg26
I201483
sg27
I76399
sg28
F0.0
sg29
I394475
sg30
L3827416L
sg31
F1.014713728936095
sg32
F0.0
sg33
I4160672
ssS'DIMICHELE RICHARD G'
p347
(dp348
g3
g5
sg4
g5
sg6
I35812
sg7
I00
sg8
F139949989.99779603
sg9
I694862
sg10
S'richard.dimichele@enron.com'
p349
sg12
g5
sg13
g5
sg14
F0.0
sg15
g5
sg16
g5
sg17
g5
sg18
g5
sg19
I374689
sg20
g5
sg21
I1000000
sg22
I8317782
sg23
g5
sg24
F139619782.91466206
sg25
F9608117.36220204
sg26
I126027
sg27
I262788
sg28
F0.0
sg29
I2368151
sg30
L5949631L
sg31
F1.0153846153846153
sg32
F0.0
sg33
I8191755
ssS'BHATNAGAR SANJAY'
p350
(dp351
g3
I523
sg4
g5
sg6
g5
sg7
I00
sg8
F137413454.4595773
sg9
g5
sg10
S'sanjay.bhatnagar@enron.com'
p352
sg12
I0
sg13
g5
sg14
F0.0
sg15
I15456290
sg16
I463
sg17
g5
sg18
I29
sg19
I137864
sg20
I137864
sg21
g5
sg22
S'NaN'
p353
sg23
I1
sg24
F135763650.26136318
sg25
F21229430.850227315
sg26
I-2604490
sg27
g5
sg28
F0.0
sg29
I15456290
sg30
L15456290L
sg31
F3.8395232847889604e-07
sg32
F0.034482758620689655
sg33
I2604490
ssS'CARTER REBECCA C'
p354
(dp355
g3
I312
sg4
g5
sg6
g5
sg7
I00
sg8
F145385803.3530362
sg9
I75000
sg10
S'rebecca.carter@enron.com'
p356
sg12
I29
sg13
I-159792
sg14
F0.09294871794871795
sg15
I-307301
sg16
I196
sg17
g5
sg18
I15
sg19
I540
sg20
g5
sg21
I300000
sg22
g5
sg23
I7
sg24
F145364856.63701394
sg25
F2467847.5455542
sg26
I307301
sg27
I261809
sg28
F5.020689655172414
sg29
I477557
sg30
L477557L
sg31
F1.0
sg32
F0.4666666666666667
sg33
g5
ssS'BUCHANAN HAROLD G'
p357
(dp358
g3
I1088
sg4
g5
sg6
I600
sg7
I00
sg8
F144423308.63029796
sg9
I304805
sg10
S'john.buchanan@enron.com'
p359
sg12
I0
sg13
g5
sg14
F0.0
sg15
g5
sg16
I23
sg17
g5
sg18
I125
sg19
I1215
sg20
g5
sg21
I500000
sg22
I1014505
sg23
I0
sg24
F144419126.55397773
sg25
F1099072.840379584
sg26
I189041
sg27
I248017
sg28
F0.0
sg29
I1054637
sg30
L40132L
sg31
F1.2290118042700833
sg32
F0.0
sg33
I825464
ssS'YEAP SOON'
p360
(dp361
g3
g5
sg4
g5
sg6
I55097
sg7
I00
sg8
F145624986.39152068
sg9
g5
sg10
g5
sg12
g5
sg13
g5
sg14
F0.0
sg15
g5
sg16
g5
sg17
g5
sg18
g5
sg19
g5
sg20
g5
sg21
g5
sg22
I192758
sg23
g5
sg24
F145602909.8522323
sg25
F2535607.2435014667
sg26
g5
sg27
g5
sg28
F0.0
sg29
I55097
sg30
L137661L
sg31
F1.0
sg32
F0.0
sg33
I192758
ssS'MURRAY JULIA H'
p362
(dp363
g3
I2192
sg4
g5
sg6
I57580
sg7
I00
sg8
F144847435.94039494
sg9
I125000
sg10
S'julia.murray@enron.com'
p364
sg12
I11
sg13
g5
sg14
F0.005018248175182482
sg15
g5
sg16
I395
sg17
g5
sg18
I45
sg19
I330
sg20
g5
sg21
I400000
sg22
I597461
sg23
I2
sg24
F144837624.15549743
sg25
F1685920.3710979328
sg26
I196983
sg27
I229284
sg28
F8.856565656565657
sg29
I812194
sg30
L214733L
sg31
F1.4918697156897507
sg32
F0.044444444444444446
sg33
I400478
ssS'GARLAND C KEVIN'
p365
(dp366
g3
I209
sg4
g5
sg6
I48405
sg7
I00
sg8
F144121297.02388087
sg9
I375304
sg10
S'kevin.garland@enron.com'
p367
sg12
I10
sg13
g5
sg14
F0.04784688995215311
sg15
g5
sg16
I178
sg17
g5
sg18
I44
sg19
I60814
sg20
g5
sg21
I850000
sg22
I896153
sg23
I27
sg24
F144115977.50251696
sg25
F1238258.5916197603
sg26
I259907
sg27
I231946
sg28
F12.825000000000001
sg29
I1566469
sg30
L670316L
sg31
F1.4085008000050294
sg32
F0.6136363636363636
sg33
I636246
ssS'DODSON KEITH'
p368
(dp369
g3
I176
sg4
g5
sg6
I28164
sg7
I00
sg8
F145543624.13406965
sg9
g5
sg10
S'keith.dodson@enron.com'
p370
sg12
I10
sg13
g5
sg14
F0.056818181818181816
sg15
g5
sg16
I114
sg17
g5
sg18
I14
sg19
I774
sg20
g5
sg21
I70000
sg22
g5
sg23
I3
sg24
F145520281.5263911
sg25
F2606566.8146473416
sg26
g5
sg27
I221003
sg28
F3.7714285714285714
sg29
I319941
sg30
L319941L
sg31
F1.0
sg32
F0.21428571428571427
sg33
g5
ssS'YEAGER F SCOTT'
p371
(dp372
g3
g5
sg4
g5
sg6
I53947
sg7
I01
sg8
F140391689.72082892
sg9
g5
sg10
S'scott.yeager@enron.com'
p373
sg12
g5
sg13
g5
sg14
F0.0
sg15
g5
sg16
g5
sg17
g5
sg18
g5
sg19
I147950
sg20
g5
sg21
g5
sg22
I11884758
sg23
g5
sg24
F139815234.65248865
sg25
F12709315.549589511
sg26
I3576206
sg27
I158403
sg28
F0.0
sg29
I360300
sg30
L11524458L
sg31
F1.4304246997551437
sg32
F0.0
sg33
I8308552
ssS'HIRKO JOSEPH'
p374
(dp375
g3
g5
sg4
I10259
sg6
I77978
sg7
I01
sg8
F140340255.9312728
sg9
g5
sg10
S'joe.hirko@enron.com'
p376
sg12
g5
sg13
g5
sg14
F0.0
sg15
g5
sg16
g5
sg17
g5
sg18
g5
sg19
I2856
sg20
g5
sg21
g5
sg22
I30766064
sg23
g5
sg24
F134099134.8509541
sg25
F41386102.34222083
sg26
g5
sg27
g5
sg28
F0.0
sg29
I91093
sg30
L30674971L
sg31
F1.0
sg32
F0.0
sg33
I30766064
ssS'DIETRICH JANET R'
p377
(dp378
g3
I2572
sg4
g5
sg6
I3475
sg7
I00
sg8
F143696634.81831378
sg9
I556416
sg10
S'janet.dietrich@enron.com'
p379
sg12
I305
sg13
g5
sg14
F0.11858475894245724
sg15
g5
sg16
I1902
sg17
g5
sg18
I63
sg19
I473
sg20
g5
sg21
I600000
sg22
I1865087
sg23
I14
sg24
F143695402.11158198
sg25
F595205.9295640388
sg26
I315068
sg27
I250100
sg28
F1.8739526411657557
sg29
I1410464
sg30
L454623L
sg31
F1.2032671857570778
sg32
F0.2222222222222222
sg33
I1550019
ssS'DERRICK JR. JAMES V'
p380
(dp381
g3
I2181
sg4
g5
sg6
I51124
sg7
I00
sg8
F140945191.4581548
sg9
I484000
sg10
S'james.derrick@enron.com'
p382
sg12
I64
sg13
I-1284000
sg14
F0.029344337459880788
sg15
I-1787380
sg16
I1401
sg17
g5
sg18
I909
sg19
I7482
sg20
g5
sg21
I800000
sg22
I8831913
sg23
I20
sg24
F140540330.9231348
sg25
F10675316.350894388
sg26
I1787380
sg27
I492375
sg28
F0.7497937293729373
sg29
I550981
sg30
L8280932L
sg31
F1.0
sg32
F0.022002200220022004
sg33
I8831913
ssS'FREVERT MARK A'
p383
(dp384
g3
I3275
sg4
I6426990
sg6
I86987
sg7
I00
sg8
F127648208.86792465
sg9
I1617011
sg10
S'mark.frevert@enron.com'
p385
sg12
I242
sg13
I-3367011
sg14
F0.07389312977099237
sg15
g5
sg16
I2979
sg17
I2000000
sg18
I21
sg19
I7427621
sg20
g5
sg21
I2000000
sg22
I14622185
sg23
I6
sg24
F125392869.98002361
sg25
F23889189.71757336
sg26
I4188667
sg27
I1060932
sg28
F3.866587957497048
sg29
I17252530
sg30
L2630345L
sg31
F1.4014625747518719
sg32
F0.2857142857142857
sg33
I10433518
ssS'PAI LOU L'
p386
(dp387
g3
g5
sg4
g5
sg6
I32047
sg7
I00
sg8
F136276954.06812912
sg9
g5
sg10
S'lou.pai@enron.com'
p388
sg12
g5
sg13
g5
sg14
F0.0
sg15
g5
sg16
g5
sg17
g5
sg18
g5
sg19
I1829457
sg20
g5
sg21
I1000000
sg22
I23817930
sg23
g5
sg24
F133504416.8065429
sg25
F27349202.97251532
sg26
I8453763
sg27
I261879
sg28
F0.0
sg29
I3123383
sg30
L20694547L
sg31
F1.5502259250371335
sg32
F0.0
sg33
I15364167
ssS'BAY FRANKLIN R'
p389
(dp390
g3
g5
sg4
I260455
sg6
I129142
sg7
I00
sg8
F145126891.8196728
sg9
g5
sg10
S'frank.bay@enron.com'
p391
sg12
g5
sg13
I-201641
sg14
F0.0
sg15
I-82782
sg16
g5
sg17
g5
sg18
g5
sg19
I69
sg20
g5
sg21
I400000
sg22
I63014
sg23
g5
sg24
F145108555.80730656
sg25
F2306894.179802512
sg26
I145796
sg27
I239671
sg28
F0.0
sg29
I827696
sg30
L764682L
sg31
F63014.0
sg32
F0.0
sg33
g5
ssS'HAYSLETT RODERICK J'
p392
(dp393
g3
I2649
sg4
g5
sg6
g5
sg7
I00
sg8
F145622406.74292734
sg9
g5
sg10
S'rod.hayslett@enron.com'
p394
sg12
I35
sg13
g5
sg14
F0.01321253303133258
sg15
g5
sg16
I571
sg17
g5
sg18
I1061
sg19
g5
sg20
g5
sg21
g5
sg22
I346663
sg23
I38
sg24
F145601073.62587836
sg25
F2492529.7579194987
sg26
I346663
sg27
g5
sg28
F2.7107041874242626
sg29
g5
sg30
L346663L
sg31
F346663.0
sg32
F0.03581526861451461
sg33
g5
ssS'FUGH JOHN L'
p395
(dp396
g3
g5
sg4
I50591
sg6
g5
sg7
I00
sg8
F145637760.82303724
sg9
g5
sg10
g5
sg12
g5
sg13
g5
sg14
F0.0
sg15
g5
sg16
g5
sg17
g5
sg18
g5
sg19
g5
sg20
g5
sg21
g5
sg22
I176378
sg23
g5
sg24
F145615398.21354714
sg25
F2552093.387455214
sg26
g5
sg27
g5
sg28
F0.0
sg29
I50591
sg30
L125787L
sg31
F1.0
sg32
F0.0
sg33
I176378
ssS'FALLON JAMES B'
p397
(dp398
g3
I1755
sg4
g5
sg6
I95924
sg7
I00
sg8
F141941243.67415944
sg9
I374347
sg10
S'jim.fallon@enron.com'
p399
sg12
I42
sg13
g5
sg14
F0.023931623931623933
sg15
g5
sg16
I1604
sg17
g5
sg18
I75
sg19
I401481
sg20
g5
sg21
I2500000
sg22
I2332399
sg23
I37
sg24
F141906322.4640421
sg25
F3148380.6152383042
sg26
I1392142
sg27
I304588
sg28
F20.614285714285714
sg29
I3676340
sg30
L1343941L
sg31
F2.4805973260502183
sg32
F0.49333333333333335
sg33
I940257
ssS'KOENIG MARK E'
p400
(dp401
g3
I2374
sg4
g5
sg6
I127017
sg7
I01
sg8
F143667784.41012052
sg9
I300000
sg10
S'mark.koenig@enron.com'
p402
sg12
I53
sg13
g5
sg14
F0.02232518955349621
sg15
g5
sg16
I2271
sg17
g5
sg18
I61
sg19
I150458
sg20
g5
sg21
I700000
sg22
I1920055
sg23
I15
sg24
F143664918.54186755
sg25
F907445.6851141909
sg26
I1248318
sg27
I309946
sg28
F11.014537581193936
sg29
I1587421
sg30
L332634L
sg31
F2.858343369503243
sg32
F0.2459016393442623
sg33
I671737
ssS'SAVAGE FRANK'
p403
(dp404
g3
g5
sg4
g5
sg6
g5
sg7
I00
sg8
F145775715.58448207
sg9
g5
sg10
g5
sg12
g5
sg13
I-121284
sg14
F0.0
sg15
g5
sg16
g5
sg17
g5
sg18
g5
sg19
g5
sg20
I125034
sg21
g5
sg22
g5
sg23
g5
sg24
F145749432.72361577
sg25
F2768052.5486355517
sg26
g5
sg27
g5
sg28
F0.0
sg29
I3750
sg30
L3750L
sg31
F1.0
sg32
F0.0
sg33
g5
ssS'IZZO LAWRENCE L'
p405
(dp406
g3
I496
sg4
g5
sg6
I28093
sg7
I00
sg8
F141723732.39814717
sg9
I312500
sg10
S'larry.izzo@enron.com'
p407
sg12
I28
sg13
g5
sg14
F0.056451612903225805
sg15
g5
sg16
I437
sg17
g5
sg18
I19
sg19
I1553729
sg20
g5
sg21
g5
sg22
I5819980
sg23
I5
sg24
F141629551.20512977
sg25
F5165902.660247388
sg26
I3654808
sg27
I85274
sg28
F4.661654135338345
sg29
I1979596
sg30
L3840384L
sg31
F2.68799892110188
sg32
F0.2631578947368421
sg33
I2165172
ssS'TILNEY ELIZABETH A'
p408
(dp409
g3
I460
sg4
g5
sg6
g5
sg7
I00
sg8
F144867023.90854537
sg9
I275000
sg10
S'elizabeth.tilney@enron.com'
p410
sg12
I10
sg13
I-575000
sg14
F0.021739130434782608
sg15
g5
sg16
I379
sg17
g5
sg18
I19
sg19
I152055
sg20
g5
sg21
I300000
sg22
I1168042
sg23
I11
sg24
F144859694.6339908
sg25
F1457218.8119842077
sg26
I576792
sg27
I247338
sg28
F26.63157894736842
sg29
I399393
sg30
L768649L
sg31
F1.9755467230443975
sg32
F0.5789473684210527
sg33
I591250
ssS'MARTIN AMANDA K'
p411
(dp412
g3
I1522
sg4
I85430
sg6
I8211
sg7
I00
sg8
F138922081.885968
sg9
I5145434
sg10
S'a..martin@enron.com'
p413
sg12
I8
sg13
g5
sg14
F0.005256241787122208
sg15
g5
sg16
I477
sg17
g5
sg18
I230
sg19
I2818454
sg20
g5
sg21
g5
sg22
I2070306
sg23
I0
sg24
F138653933.7046472
sg25
F8627369.457655963
sg26
g5
sg27
I349487
sg28
F0.0
sg29
I8407016
sg30
L6336710L
sg31
F1.0
sg32
F0.0
sg33
I2070306
ssS'BUY RICHARD B'
p414
(dp415
g3
I3523
sg4
I649584
sg6
g5
sg7
I00
sg8
F142232215.2767424
sg9
I769862
sg10
S'rick.buy@enron.com'
p416
sg12
I156
sg13
I-694862
sg14
F0.04428044280442804
sg15
g5
sg16
I2333
sg17
g5
sg18
I1053
sg19
I400572
sg20
g5
sg21
I900000
sg22
I3444470
sg23
I71
sg24
F142210272.94271323
sg25
F2498265.8162410506
sg26
I901657
sg27
I330546
sg28
F1.522712883823995
sg29
I2355702
sg30
L1088768L
sg31
F1.3545903690125856
sg32
F0.06742640075973409
sg33
I2542813
ssS'GRAMM WENDY L'
p417
(dp418
g3
g5
sg4
g5
sg6
g5
sg7
I00
sg8
F145692871.16105148
sg9
g5
sg10
g5
sg12
g5
sg13
g5
sg14
F0.0
sg15
g5
sg16
g5
sg17
g5
sg18
g5
sg19
g5
sg20
I119292
sg21
g5
sg22
g5
sg23
g5
sg24
F145667556.4504341
sg25
F2715824.904212929
sg26
g5
sg27
g5
sg28
F0.0
sg29
I119292
sg30
L119292L
sg31
F1.0
sg32
F0.0
sg33
g5
ssS'CAUSEY RICHARD A'
p419
(dp420
g3
I1892
sg4
g5
sg6
I30674
sg7
I01
sg8
F143327590.5798701
sg9
I350000
sg10
S'richard.causey@enron.com'
p421
sg12
I58
sg13
I-235000
sg14
F0.0306553911205074
sg15
g5
sg16
I1585
sg17
g5
sg18
I49
sg19
I307895
sg20
g5
sg21
I1000000
sg22
I2502063
sg23
I12
sg24
F143306835.29622167
sg25
F2439093.850687087
sg26
I2502063
sg27
I415189
sg28
F7.988740323715693
sg29
I1868758
sg30
L633305L
sg31
F2502063.0
sg32
F0.24489795918367346
sg33
g5
ssS'TAYLOR MITCHELL S'
p422
(dp423
g3
I533
sg4
I227449
sg6
g5
sg7
I00
sg8
F142965676.4052323
sg9
g5
sg10
S'mitchell.taylor@enron.com'
p424
sg12
I0
sg13
g5
sg14
F0.0
sg15
g5
sg16
I300
sg17
g5
sg18
I29
sg19
g5
sg20
g5
sg21
I600000
sg22
I3745048
sg23
I0
sg24
F142938647.0439729
sg25
F2779894.1066402867
sg26
I563798
sg27
I265214
sg28
F0.0
sg29
I1092663
sg30
L2652385L
sg31
F1.177225304518664
sg32
F0.0
sg33
I3181250
ssS'DONAHUE JR JEFFREY M'
p425
(dp426
g3
I865
sg4
g5
sg6
I96268
sg7
I00
sg8
F144523453.32016402
sg9
g5
sg10
S'jeff.donahue@enron.com'
p427
sg12
I188
sg13
I-300000
sg14
F0.21734104046242775
sg15
g5
sg16
I772
sg17
g5
sg18
I22
sg19
I891
sg20
g5
sg21
I800000
sg22
I1080988
sg23
I11
sg24
F144518814.6913082
sg25
F1157911.8295245424
sg26
I315068
sg27
I278601
sg28
F2.300531914893617
sg29
I875760
sg30
L205228L
sg31
F1.4113588886567787
sg32
F0.5
sg33
I765920
ssS'GLISAN JR BEN F'
p428
(dp429
g3
I873
sg4
g5
sg6
I125978
sg7
I01
sg8
F144433867.1802149
sg9
I71023
sg10
S'ben.glisan@enron.com'
p430
sg12
I52
sg13
g5
sg14
F0.05956471935853379
sg15
g5
sg16
I874
sg17
g5
sg18
I16
sg19
I200308
sg20
g5
sg21
I600000
sg22
I778546
sg23
I6
sg24
F144426948.69626644
sg25
F1413675.676376998
sg26
I393818
sg27
I274975
sg28
F6.2956730769230775
sg29
I1272284
sg30
L493738L
sg31
F2.0236270819903934
sg32
F0.375
sg33
I384728
ss.