(lp0
S'poi'
p1
aS'long_term_incentive'
p2
aS'total_payments'
p3
aS'total_stock_value'
p4
aS'salary'
p5
aS'bonus'
p6
aS'fraction_to_poi'
p7
aS'fraction_total_exercised_stock'
p8
aS'eu'
p9
aS'c1'
p10
aS'fraction_to_from_poi'
p11
aS'imbalance_payment_stock'
p12
a.